; Function Attrs: mustprogress uwtable
define void @_ZN8RichEnumC2ERK7QStringiRK11QStringListS2_S2_bS2_(ptr noundef nonnull align 8 dereferenceable(64) %0, ptr noundef nonnull align 8 dereferenceable(8) %1, i32 noundef %2, ptr nocapture noundef nonnull readonly align 8 dereferenceable(8) %3, ptr noundef nonnull align 8 dereferenceable(8) %4, ptr noundef nonnull align 8 dereferenceable(8) %5, i1 noundef zeroext %6, ptr noundef nonnull align 8 dereferenceable(8) %7) unnamed_addr #1 align 2 personality ptr @__gxx_personality_v0 {
  %9 = alloca %class.IntValue, align 8
  call void @_ZN8IntValueC1Ei(ptr noundef nonnull align 8 dereferenceable(12) %9, i32 noundef %2)
  call void @_ZN13RichParameterC2ERK7QStringRK5ValueS2_S2_bS2_(ptr noundef nonnull align 8 dereferenceable(56) %0, ptr noundef nonnull align 8 dereferenceable(8) %1, ptr noundef nonnull align 8 dereferenceable(8) %9, ptr noundef nonnull align 8 dereferenceable(8) %4, ptr noundef nonnull align 8 dereferenceable(8) %5, i1 noundef zeroext %6, ptr noundef nonnull align 8 dereferenceable(8) %7)
  store ptr getelementptr inbounds ({ [8 x ptr] }, ptr @_ZTV8RichEnum, i64 0, i32 0, i64 2), ptr %0, align 8
  %10 = getelementptr inbounds i8, ptr %0, i64 56
  %11 = load ptr, ptr %3, align 8
  store ptr %11, ptr %10, align 8
  %12 = load atomic i32, ptr %11 monotonic, align 4
  %13 = add i32 %12, -1
  %or.cond.not.i.i.i = icmp ult i32 %13, -2
  br i1 %or.cond.not.i.i.i, label %_ZN9QtPrivate8RefCount3refEv.exit.thread.i.i, label %_ZN9QtPrivate8RefCount3refEv.exit.i.i

_ZN9QtPrivate8RefCount3refEv.exit.thread.i.i:     ; preds = %8
  %14 = atomicrmw add ptr %11, i32 1 seq_cst, align 4
  br label %_ZN11QStringListC2ERKS_.exit

_ZN9QtPrivate8RefCount3refEv.exit.i.i:            ; preds = %8
  %.not.i.i = icmp eq i32 %12, 0
  br i1 %.not.i.i, label %15, label %_ZN11QStringListC2ERKS_.exit

15:                                               ; preds = %_ZN9QtPrivate8RefCount3refEv.exit.i.i
  %16 = getelementptr inbounds i8, ptr %11, i64 4
  %17 = load i32, ptr %16, align 4
  %18 = invoke noundef ptr @_ZN9QListData6detachEi(ptr noundef nonnull align 8 dereferenceable(8) %10, i32 noundef %17)
          to label %.noexc unwind label %42

.noexc:                                           ; preds = %15
  %19 = load ptr, ptr %10, align 8
  %20 = getelementptr i8, ptr %19, i64 16
  %21 = getelementptr inbounds i8, ptr %19, i64 8
  %22 = load i32, ptr %21, align 8
  %23 = getelementptr inbounds i8, ptr %19, i64 12
  %24 = load i32, ptr %23, align 4
  %25 = sext i32 %24 to i64
  %26 = getelementptr inbounds ptr, ptr %20, i64 %25
  %.not8.i.i.i = icmp eq i32 %22, %24
  br i1 %.not8.i.i.i, label %_ZN11QStringListC2ERKS_.exit, label %.lr.ph.i.preheader.i.i

.lr.ph.i.preheader.i.i:                           ; preds = %.noexc
  %27 = load ptr, ptr %3, align 8
  %28 = getelementptr inbounds i8, ptr %27, i64 16
  %29 = getelementptr inbounds i8, ptr %27, i64 8
  %30 = load i32, ptr %29, align 8
  %31 = sext i32 %30 to i64
  %32 = getelementptr inbounds ptr, ptr %28, i64 %31
  %33 = sext i32 %22 to i64
  %34 = getelementptr ptr, ptr %20, i64 %33
  br label %.lr.ph.i.i.i

.lr.ph.i.i.i:                                     ; preds = %_ZN7QStringC2ERKS_.exit.i.i.i, %.lr.ph.i.preheader.i.i
  %.010.i.i.i = phi ptr [ %40, %_ZN7QStringC2ERKS_.exit.i.i.i ], [ %34, %.lr.ph.i.preheader.i.i ]
  %.079.i.i.i = phi ptr [ %41, %_ZN7QStringC2ERKS_.exit.i.i.i ], [ %32, %.lr.ph.i.preheader.i.i ]
  %35 = load ptr, ptr %.079.i.i.i, align 8
  store ptr %35, ptr %.010.i.i.i, align 8
  %36 = load atomic i32, ptr %35 monotonic, align 4
  %37 = add i32 %36, -1
  %or.cond.not.i.i.i.i.i = icmp ult i32 %37, -2
  br i1 %or.cond.not.i.i.i.i.i, label %38, label %_ZN7QStringC2ERKS_.exit.i.i.i

38:                                               ; preds = %.lr.ph.i.i.i
  %39 = atomicrmw add ptr %35, i32 1 seq_cst, align 4
  br label %_ZN7QStringC2ERKS_.exit.i.i.i

_ZN7QStringC2ERKS_.exit.i.i.i:                    ; preds = %38, %.lr.ph.i.i.i
  %40 = getelementptr inbounds i8, ptr %.010.i.i.i, i64 8
  %41 = getelementptr inbounds i8, ptr %.079.i.i.i, i64 8
  %.not.i.i.i = icmp eq ptr %40, %26
  br i1 %.not.i.i.i, label %_ZN11QStringListC2ERKS_.exit, label %.lr.ph.i.i.i, !llvm.loop !10

_ZN11QStringListC2ERKS_.exit:                     ; preds = %_ZN7QStringC2ERKS_.exit.i.i.i, %.noexc, %_ZN9QtPrivate8RefCount3refEv.exit.i.i, %_ZN9QtPrivate8RefCount3refEv.exit.thread.i.i
  ret void

42:                                               ; preds = %15
  %43 = landingpad { ptr, i32 }
          cleanup
  call void @_ZN13RichParameterD2Ev(ptr noundef nonnull align 8 dereferenceable(56) %0) #11
  resume { ptr, i32 } %43
}